; Function Attrs: nounwind uwtable
define ptr @Mio_LibraryReadSopByName(ptr noundef readonly captures(none) %0, ptr noundef %1) local_unnamed_addr #7 {
  %3 = alloca ptr, align 8
  call void @llvm.lifetime.start.p0(i64 8, ptr nonnull %3) #14
  %4 = getelementptr inbounds nuw i8, ptr %0, i64 104
  %5 = load ptr, ptr %4, align 8, !tbaa !48
  %6 = call i32 @st__lookup(ptr noundef %5, ptr noundef %1, ptr noundef nonnull %3) #14
  %.not = icmp eq i32 %6, 0
  br i1 %.not, label %11, label %7

7:                                                ; preds = %2
  %8 = load ptr, ptr %3, align 8, !tbaa !25
  %9 = getelementptr inbounds nuw i8, ptr %8, i64 88
  %10 = load ptr, ptr %9, align 8, !tbaa !54
  br label %11

11:                                               ; preds = %2, %7
  %.0 = phi ptr [ %10, %7 ], [ null, %2 ]
  call void @llvm.lifetime.end.p0(i64 8, ptr nonnull %3) #14
  ret ptr %.0
}